; Function Attrs: mustprogress nounwind uwtable
define dso_local void @_ZN5clang5arcmt11CheckActionC2ESt10unique_ptrINS_14FrontendActionESt14default_deleteIS3_EE(ptr noundef nonnull align 8 dereferenceable(112) %0, ptr nocapture noundef %1) unnamed_addr #0 align 2 {
  %3 = alloca %"class.std::unique_ptr.121", align 8
  %4 = load i64, ptr %1, align 8
  store i64 %4, ptr %3, align 8
  store ptr null, ptr %1, align 8
  call void @_ZN5clang21WrapperFrontendActionC2ESt10unique_ptrINS_14FrontendActionESt14default_deleteIS2_EE(ptr noundef nonnull align 8 dereferenceable(112) %0, ptr noundef nonnull %3) #7
  %5 = load ptr, ptr %3, align 8
  %.not.i = icmp eq ptr %5, null
  br i1 %.not.i, label %_ZNSt10unique_ptrIN5clang14FrontendActionESt14default_deleteIS1_EED2Ev.exit, label %_ZNKSt14default_deleteIN5clang14FrontendActionEEclEPS1_.exit.i

_ZNKSt14default_deleteIN5clang14FrontendActionEEclEPS1_.exit.i: ; preds = %2
  %6 = load ptr, ptr %5, align 8
  %7 = getelementptr inbounds i8, ptr %6, i64 64
  %8 = load ptr, ptr %7, align 8
  call void %8(ptr noundef nonnull align 8 dereferenceable(104) %5) #7
  br label %_ZNSt10unique_ptrIN5clang14FrontendActionESt14default_deleteIS1_EED2Ev.exit

_ZNSt10unique_ptrIN5clang14FrontendActionESt14default_deleteIS1_EED2Ev.exit: ; preds = %2, %_ZNKSt14default_deleteIN5clang14FrontendActionEEclEPS1_.exit.i
  store ptr getelementptr inbounds inrange(-16, 136) (i8, ptr @_ZTVN5clang5arcmt11CheckActionE, i64 16), ptr %0, align 8
  ret void
}